target datalayout = "e-m:e-p270:32:32-p271:32:32-p272:64:64-i64:64-i128:128-f80:128-n8:16:32:64-S128"
target triple = "x86_64-pc-linux-gnu"

; Function Attrs: nounwind sspstrong uwtable
define hidden i64 @FLAC__lpc_max_prediction_value_before_shift(i32 noundef %0, ptr noalias noundef %1, i32 noundef %2) #0 {
  %4 = alloca i32, align 4
  %5 = alloca ptr, align 8
  %6 = alloca i32, align 4
  %7 = alloca i64, align 8
  %8 = alloca i32, align 4
  %9 = alloca i32, align 4
  store i32 %0, ptr %4, align 4, !tbaa !10
  store ptr %1, ptr %5, align 8, !tbaa !3
  store i32 %2, ptr %6, align 4, !tbaa !10
  call void @llvm.lifetime.start.p0(i64 8, ptr %7) #5
  %10 = load i32, ptr %4, align 4, !tbaa !10
  %11 = sub i32 %10, 1
  %12 = zext i32 %11 to i64
  %13 = shl i64 1, %12
  store i64 %13, ptr %7, align 8, !tbaa !18
  call void @llvm.lifetime.start.p0(i64 4, ptr %8) #5
  store i32 0, ptr %8, align 4, !tbaa !10
  call void @llvm.lifetime.start.p0(i64 4, ptr %9) #5
  store i32 0, ptr %9, align 4, !tbaa !10
  br label %14

14:                                               ; preds = %27, %3
  %15 = load i32, ptr %9, align 4, !tbaa !10
  %16 = load i32, ptr %6, align 4, !tbaa !10
  %17 = icmp ult i32 %15, %16
  br i1 %17, label %18, label %30

18:                                               ; preds = %14
  %19 = load ptr, ptr %5, align 8, !tbaa !3
  %20 = load i32, ptr %9, align 4, !tbaa !10
  %21 = zext i32 %20 to i64
  %22 = getelementptr inbounds nuw i32, ptr %19, i64 %21
  %23 = load i32, ptr %22, align 4, !tbaa !10
  %24 = call i32 @llvm.abs.i32(i32 %23, i1 true)
  %25 = load i32, ptr %8, align 4, !tbaa !10
  %26 = add i32 %25, %24
  store i32 %26, ptr %8, align 4, !tbaa !10
  br label %27

27:                                               ; preds = %18
  %28 = load i32, ptr %9, align 4, !tbaa !10
  %29 = add i32 %28, 1
  store i32 %29, ptr %9, align 4, !tbaa !10
  br label %14, !llvm.loop !84

30:                                               ; preds = %14
  %31 = load i64, ptr %7, align 8, !tbaa !18
  %32 = load i32, ptr %8, align 4, !tbaa !10
  %33 = zext i32 %32 to i64
  %34 = mul i64 %31, %33
  call void @llvm.lifetime.end.p0(i64 4, ptr %9) #5
  call void @llvm.lifetime.end.p0(i64 4, ptr %8) #5
  call void @llvm.lifetime.end.p0(i64 8, ptr %7) #5
  ret i64 %34
}