; Function Attrs: nofree norecurse nosync nounwind sspstrong memory(argmem: read) uwtable
define hidden i64 @FLAC__lpc_max_prediction_value_before_shift(i32 noundef %0, ptr noalias noundef readonly captures(none) %1, i32 noundef %2) local_unnamed_addr #6 {
  %.not = icmp eq i32 %2, 0
  br i1 %.not, label %._crit_edge, label %.lr.ph.preheader

.lr.ph.preheader:                                 ; preds = %3
  %wide.trip.count = zext i32 %2 to i64
  br label %.lr.ph

.lr.ph:                                           ; preds = %.lr.ph.preheader, %.lr.ph
  %indvars.iv = phi i64 [ 0, %.lr.ph.preheader ], [ %indvars.iv.next, %.lr.ph ]
  %.089 = phi i32 [ 0, %.lr.ph.preheader ], [ %7, %.lr.ph ]
  %4 = getelementptr inbounds nuw i32, ptr %1, i64 %indvars.iv
  %5 = load i32, ptr %4, align 4, !tbaa !3
  %6 = tail call i32 @llvm.abs.i32(i32 %5, i1 true)
  %7 = add i32 %6, %.089
  %indvars.iv.next = add nuw nsw i64 %indvars.iv, 1
  %exitcond.not = icmp eq i64 %indvars.iv.next, %wide.trip.count
  br i1 %exitcond.not, label %._crit_edge.loopexit, label %.lr.ph, !llvm.loop !71

._crit_edge.loopexit:                             ; preds = %.lr.ph
  %8 = zext i32 %7 to i64
  br label %._crit_edge

._crit_edge:                                      ; preds = %._crit_edge.loopexit, %3
  %.08.lcssa = phi i64 [ 0, %3 ], [ %8, %._crit_edge.loopexit ]
  %9 = add i32 %0, -1
  %10 = zext nneg i32 %9 to i64
  %11 = shl i64 %.08.lcssa, %10
  ret i64 %11
}